target datalayout = "e-m:e-p270:32:32-p271:32:32-p272:64:64-i64:64-i128:128-f80:128-n8:16:32:64-S128"
target triple = "x86_64-pc-linux-gnu"

%struct.mbedtls_ssl_tls13_handshake_secrets = type { [64 x i8], [64 x i8] }
%struct.mbedtls_ssl_context = type { ptr, i32, i32, i32, i32, i32, ptr, ptr, ptr, ptr, ptr, ptr, ptr, ptr, ptr, ptr, ptr, ptr, ptr, ptr, ptr, ptr, ptr, ptr, ptr, ptr, ptr, ptr, ptr, ptr, ptr, ptr, ptr, i32, i64, i64, i16, i64, i64, i64, i64, i32, i32, i8, i8, i32, i8, ptr, ptr, ptr, ptr, ptr, ptr, ptr, i32, i64, i64, [8 x i8], i16, ptr, ptr, ptr, i64, i32, i64, [12 x i8], [12 x i8], [32 x i8], i8, i8, ptr, ptr, %union.mbedtls_ssl_user_data_t }
%union.mbedtls_ssl_user_data_t = type { i64 }
%struct.mbedtls_ssl_handshake_params = type { i8, i8, i8, i8, i8, i32, i8, i8, i8, i8, ptr, ptr, ptr, ptr, ptr, i8, i8, i8, i8, i16, i16, [20 x i16], ptr, ptr, %struct.mbedtls_dhm_context, %struct.mbedtls_ecdh_context, i16, i64, i32, i8, [1024 x i8], i64, ptr, ptr, i64, i16, ptr, ptr, ptr, ptr, %struct.anon, ptr, i16, i8, i32, i32, i32, ptr, ptr, ptr, i32, ptr, [8 x i8], i8, [32 x i8], i8, i16, %struct.mbedtls_md_context_t, %struct.mbedtls_md_context_t, i16, i8, %union.anon.3, [64 x i8], [1076 x i8], i64, i32, i32, i8, ptr, ptr, %union.anon.6, %struct.mbedtls_ssl_tls13_handshake_secrets, ptr, i64, ptr }
%struct.mbedtls_dhm_context = type { %struct.mbedtls_mpi, %struct.mbedtls_mpi, %struct.mbedtls_mpi, %struct.mbedtls_mpi, %struct.mbedtls_mpi, %struct.mbedtls_mpi, %struct.mbedtls_mpi, %struct.mbedtls_mpi, %struct.mbedtls_mpi, %struct.mbedtls_mpi }
%struct.mbedtls_mpi = type { ptr, i16, i16 }
%struct.mbedtls_ecdh_context = type { i8, i32, i32, %union.anon.1 }
%union.anon.1 = type { %struct.mbedtls_ecdh_context_mbed }
%struct.mbedtls_ecdh_context_mbed = type { %struct.mbedtls_ecp_group, %struct.mbedtls_mpi, %struct.mbedtls_ecp_point, %struct.mbedtls_ecp_point, %struct.mbedtls_mpi }
%struct.mbedtls_ecp_group = type { i32, %struct.mbedtls_mpi, %struct.mbedtls_mpi, %struct.mbedtls_mpi, %struct.mbedtls_ecp_point, %struct.mbedtls_mpi, i64, i64, i32, ptr, ptr, ptr, ptr, ptr, i64 }
%struct.mbedtls_ecp_point = type { %struct.mbedtls_mpi, %struct.mbedtls_mpi, %struct.mbedtls_mpi }
%struct.anon = type { i64, i8, [4 x %struct.mbedtls_ssl_hs_buffer], %struct.anon.2 }
%struct.mbedtls_ssl_hs_buffer = type { i8, ptr, i64 }
%struct.anon.2 = type { ptr, i64, i32 }
%struct.mbedtls_md_context_t = type { ptr, ptr, ptr }
%union.anon.3 = type { %struct.anon.4 }
%struct.anon.4 = type { i8, [64 x i8], i64 }
%union.anon.6 = type { [64 x i8] }
%struct.mbedtls_ssl_ciphersuite_t = type { i32, ptr, i8, i8, i8, i8, i16, i16 }

@.str = private unnamed_addr constant [128 x i8] c"generated/home/dtcxzyw/WorkSpace/Projects/compilers/llvm-opt-benchmark/bench/lief/bench_build/mbed_src/library/ssl_tls13_keys.c\00", align 1
@.str.6 = private unnamed_addr constant [32 x i8] c"mbedtls_ssl_tls13_evolve_secret\00", align 1
@.str.16 = private unnamed_addr constant [28 x i8] c"cipher suite info not found\00", align 1
@.str.17 = private unnamed_addr constant [39 x i8] c"mbedtls_ssl_tls13_export_handshake_psk\00", align 1
@.str.18 = private unnamed_addr constant [43 x i8] c"mbedtls_ssl_tls13_key_schedule_stage_early\00", align 1

; Function Attrs: inlinehint nounwind uwtable
define internal i32 @mbedtls_ssl_tls13_key_exchange_mode_check(ptr noundef %0, i32 noundef %1) #5 {
  %3 = alloca ptr, align 8
  %4 = alloca i32, align 4
  store ptr %0, ptr %3, align 8, !tbaa !21
  store i32 %1, ptr %4, align 4, !tbaa !3
  %5 = load ptr, ptr %3, align 8, !tbaa !21
  %6 = getelementptr inbounds nuw %struct.mbedtls_ssl_context, ptr %5, i32 0, i32 16
  %7 = load ptr, ptr %6, align 8, !tbaa !23
  %8 = getelementptr inbounds nuw %struct.mbedtls_ssl_handshake_params, ptr %7, i32 0, i32 15
  %9 = load i8, ptr %8, align 8, !tbaa !92
  %10 = zext i8 %9 to i32
  %11 = load i32, ptr %4, align 4, !tbaa !3
  %12 = and i32 %10, %11
  %13 = icmp ne i32 %12, 0
  %14 = zext i1 %13 to i32
  ret i32 %14
}

; Function Attrs: nounwind uwtable
define hidden i32 @mbedtls_ssl_tls13_export_handshake_psk(ptr noundef %0, ptr noundef %1, ptr noundef %2) #0 {
  %4 = alloca i32, align 4
  %5 = alloca ptr, align 8
  %6 = alloca ptr, align 8
  %7 = alloca ptr, align 8
  store ptr %0, ptr %5, align 8, !tbaa !21
  store ptr %1, ptr %6, align 8, !tbaa !64
  store ptr %2, ptr %7, align 8, !tbaa !12
  %8 = load ptr, ptr %5, align 8, !tbaa !21
  %9 = getelementptr inbounds nuw %struct.mbedtls_ssl_context, ptr %8, i32 0, i32 16
  %10 = load ptr, ptr %9, align 8, !tbaa !23
  %11 = getelementptr inbounds nuw %struct.mbedtls_ssl_handshake_params, ptr %10, i32 0, i32 33
  %12 = load ptr, ptr %11, align 8, !tbaa !67
  %13 = load ptr, ptr %6, align 8, !tbaa !64
  store ptr %12, ptr %13, align 8, !tbaa !7
  %14 = load ptr, ptr %5, align 8, !tbaa !21
  %15 = getelementptr inbounds nuw %struct.mbedtls_ssl_context, ptr %14, i32 0, i32 16
  %16 = load ptr, ptr %15, align 8, !tbaa !23
  %17 = getelementptr inbounds nuw %struct.mbedtls_ssl_handshake_params, ptr %16, i32 0, i32 34
  %18 = load i64, ptr %17, align 8, !tbaa !68
  %19 = load ptr, ptr %7, align 8, !tbaa !12
  store i64 %18, ptr %19, align 8, !tbaa !10
  %20 = load ptr, ptr %6, align 8, !tbaa !64
  %21 = load ptr, ptr %20, align 8, !tbaa !7
  %22 = icmp eq ptr %21, null
  br i1 %22, label %23, label %24

23:                                               ; preds = %3
  store i32 -27648, ptr %4, align 4
  br label %25

24:                                               ; preds = %3
  store i32 0, ptr %4, align 4
  br label %25

25:                                               ; preds = %24, %23
  %26 = load i32, ptr %4, align 4
  ret i32 %26
}

; Function Attrs: inlinehint nounwind uwtable
define internal i32 @mbedtls_ssl_tls13_key_exchange_mode_with_psk(ptr noundef %0) #5 {
  %2 = alloca ptr, align 8
  store ptr %0, ptr %2, align 8, !tbaa !21
  %3 = load ptr, ptr %2, align 8, !tbaa !21
  %4 = call i32 @mbedtls_ssl_tls13_key_exchange_mode_check(ptr noundef %3, i32 noundef 5)
  ret i32 %4
}

; Function Attrs: inlinehint nounwind uwtable
define internal i32 @mbedtls_md_psa_alg_from_type(i32 noundef %0) #5 {
  %2 = alloca i32, align 4
  store i32 %0, ptr %2, align 4, !tbaa !3
  %3 = load i32, ptr %2, align 4, !tbaa !3
  %4 = or i32 33554432, %3
  ret i32 %4
}

; Function Attrs: nounwind uwtable
define hidden i32 @mbedtls_ssl_tls13_key_schedule_stage_early(ptr noundef %0) #0 {
  %2 = alloca i32, align 4
  %3 = alloca ptr, align 8
  %4 = alloca i32, align 4
  %5 = alloca i32, align 4
  %6 = alloca ptr, align 8
  %7 = alloca ptr, align 8
  %8 = alloca i64, align 8
  %9 = alloca i32, align 4
  store ptr %0, ptr %3, align 8, !tbaa !21
  call void @llvm.lifetime.start.p0(i64 4, ptr %4) #8
  store i32 -110, ptr %4, align 4, !tbaa !3
  call void @llvm.lifetime.start.p0(i64 4, ptr %5) #8
  call void @llvm.lifetime.start.p0(i64 8, ptr %6) #8
  %10 = load ptr, ptr %3, align 8, !tbaa !21
  %11 = getelementptr inbounds nuw %struct.mbedtls_ssl_context, ptr %10, i32 0, i32 16
  %12 = load ptr, ptr %11, align 8, !tbaa !23
  store ptr %12, ptr %6, align 8, !tbaa !63
  call void @llvm.lifetime.start.p0(i64 8, ptr %7) #8
  store ptr null, ptr %7, align 8, !tbaa !7
  call void @llvm.lifetime.start.p0(i64 8, ptr %8) #8
  store i64 0, ptr %8, align 8, !tbaa !10
  %13 = load ptr, ptr %6, align 8, !tbaa !63
  %14 = getelementptr inbounds nuw %struct.mbedtls_ssl_handshake_params, ptr %13, i32 0, i32 10
  %15 = load ptr, ptr %14, align 8, !tbaa !30
  %16 = icmp eq ptr %15, null
  br i1 %16, label %17, label %19

17:                                               ; preds = %1
  %18 = load ptr, ptr %3, align 8, !tbaa !21
  call void (ptr, i32, ptr, i32, ptr, ...) @mbedtls_debug_print_msg(ptr noundef %18, i32 noundef 1, ptr noundef @.str, i32 noundef 1285, ptr noundef @.str.16)
  store i32 -27648, ptr %2, align 4
  store i32 1, ptr %9, align 4
  br label %161

19:                                               ; preds = %1
  %20 = load ptr, ptr %6, align 8, !tbaa !63
  %21 = getelementptr inbounds nuw %struct.mbedtls_ssl_handshake_params, ptr %20, i32 0, i32 10
  %22 = load ptr, ptr %21, align 8, !tbaa !30
  %23 = getelementptr inbounds nuw %struct.mbedtls_ssl_ciphersuite_t, ptr %22, i32 0, i32 3
  %24 = load i8, ptr %23, align 1, !tbaa !46
  %25 = zext i8 %24 to i32
  %26 = call i32 @mbedtls_md_psa_alg_from_type(i32 noundef %25)
  store i32 %26, ptr %5, align 4, !tbaa !3
  %27 = load ptr, ptr %3, align 8, !tbaa !21
  %28 = call i32 @mbedtls_ssl_tls13_key_exchange_mode_with_psk(ptr noundef %27)
  %29 = icmp ne i32 %28, 0
  br i1 %29, label %30, label %40

30:                                               ; preds = %19
  %31 = load ptr, ptr %3, align 8, !tbaa !21
  %32 = call i32 @mbedtls_ssl_tls13_export_handshake_psk(ptr noundef %31, ptr noundef %7, ptr noundef %8)
  store i32 %32, ptr %4, align 4, !tbaa !3
  %33 = load i32, ptr %4, align 4, !tbaa !3
  %34 = icmp ne i32 %33, 0
  br i1 %34, label %35, label %39

35:                                               ; preds = %30
  %36 = load ptr, ptr %3, align 8, !tbaa !21
  %37 = load i32, ptr %4, align 4, !tbaa !3
  call void @mbedtls_debug_print_ret(ptr noundef %36, i32 noundef 1, ptr noundef @.str, i32 noundef 1295, ptr noundef @.str.17, i32 noundef %37)
  %38 = load i32, ptr %4, align 4, !tbaa !3
  store i32 %38, ptr %2, align 4
  store i32 1, ptr %9, align 4
  br label %161

39:                                               ; preds = %30
  br label %40

40:                                               ; preds = %39, %19
  %41 = load i32, ptr %5, align 4, !tbaa !3
  %42 = load ptr, ptr %7, align 8, !tbaa !7
  %43 = load i64, ptr %8, align 8, !tbaa !10
  %44 = load ptr, ptr %6, align 8, !tbaa !63
  %45 = getelementptr inbounds nuw %struct.mbedtls_ssl_handshake_params, ptr %44, i32 0, i32 70
  %46 = getelementptr inbounds [64 x i8], ptr %45, i64 0, i64 0
  %47 = call i32 @mbedtls_ssl_tls13_evolve_secret(i32 noundef %41, ptr noundef null, ptr noundef %42, i64 noundef %43, ptr noundef %46)
  store i32 %47, ptr %4, align 4, !tbaa !3
  %48 = load i32, ptr %4, align 4, !tbaa !3
  %49 = icmp ne i32 %48, 0
  br i1 %49, label %50, label %54

50:                                               ; preds = %40
  %51 = load ptr, ptr %3, align 8, !tbaa !21
  %52 = load i32, ptr %4, align 4, !tbaa !3
  call void @mbedtls_debug_print_ret(ptr noundef %51, i32 noundef 1, ptr noundef @.str, i32 noundef 1308, ptr noundef @.str.6, i32 noundef %52)
  %53 = load i32, ptr %4, align 4, !tbaa !3
  store i32 %53, ptr %2, align 4
  store i32 1, ptr %9, align 4
  br label %161

54:                                               ; preds = %40
  %55 = load ptr, ptr %3, align 8, !tbaa !21
  %56 = load ptr, ptr %6, align 8, !tbaa !63
  %57 = getelementptr inbounds nuw %struct.mbedtls_ssl_handshake_params, ptr %56, i32 0, i32 70
  %58 = getelementptr inbounds [64 x i8], ptr %57, i64 0, i64 0
  %59 = load i32, ptr %5, align 4, !tbaa !3
  %60 = and i32 %59, 255
  %61 = or i32 33554432, %60
  %62 = icmp eq i32 %61, 33554435
  br i1 %62, label %63, label %64

63:                                               ; preds = %54
  br label %158

64:                                               ; preds = %54
  %65 = load i32, ptr %5, align 4, !tbaa !3
  %66 = and i32 %65, 255
  %67 = or i32 33554432, %66
  %68 = icmp eq i32 %67, 33554436
  br i1 %68, label %69, label %70

69:                                               ; preds = %64
  br label %156

70:                                               ; preds = %64
  %71 = load i32, ptr %5, align 4, !tbaa !3
  %72 = and i32 %71, 255
  %73 = or i32 33554432, %72
  %74 = icmp eq i32 %73, 33554437
  br i1 %74, label %75, label %76

75:                                               ; preds = %70
  br label %154

76:                                               ; preds = %70
  %77 = load i32, ptr %5, align 4, !tbaa !3
  %78 = and i32 %77, 255
  %79 = or i32 33554432, %78
  %80 = icmp eq i32 %79, 33554440
  br i1 %80, label %81, label %82

81:                                               ; preds = %76
  br label %152

82:                                               ; preds = %76
  %83 = load i32, ptr %5, align 4, !tbaa !3
  %84 = and i32 %83, 255
  %85 = or i32 33554432, %84
  %86 = icmp eq i32 %85, 33554441
  br i1 %86, label %87, label %88

87:                                               ; preds = %82
  br label %150

88:                                               ; preds = %82
  %89 = load i32, ptr %5, align 4, !tbaa !3
  %90 = and i32 %89, 255
  %91 = or i32 33554432, %90
  %92 = icmp eq i32 %91, 33554442
  br i1 %92, label %93, label %94

93:                                               ; preds = %88
  br label %148

94:                                               ; preds = %88
  %95 = load i32, ptr %5, align 4, !tbaa !3
  %96 = and i32 %95, 255
  %97 = or i32 33554432, %96
  %98 = icmp eq i32 %97, 33554443
  br i1 %98, label %99, label %100

99:                                               ; preds = %94
  br label %146

100:                                              ; preds = %94
  %101 = load i32, ptr %5, align 4, !tbaa !3
  %102 = and i32 %101, 255
  %103 = or i32 33554432, %102
  %104 = icmp eq i32 %103, 33554444
  br i1 %104, label %105, label %106

105:                                              ; preds = %100
  br label %144

106:                                              ; preds = %100
  %107 = load i32, ptr %5, align 4, !tbaa !3
  %108 = and i32 %107, 255
  %109 = or i32 33554432, %108
  %110 = icmp eq i32 %109, 33554445
  br i1 %110, label %111, label %112

111:                                              ; preds = %106
  br label %142

112:                                              ; preds = %106
  %113 = load i32, ptr %5, align 4, !tbaa !3
  %114 = and i32 %113, 255
  %115 = or i32 33554432, %114
  %116 = icmp eq i32 %115, 33554448
  br i1 %116, label %117, label %118

117:                                              ; preds = %112
  br label %140

118:                                              ; preds = %112
  %119 = load i32, ptr %5, align 4, !tbaa !3
  %120 = and i32 %119, 255
  %121 = or i32 33554432, %120
  %122 = icmp eq i32 %121, 33554449
  br i1 %122, label %123, label %124

123:                                              ; preds = %118
  br label %138

124:                                              ; preds = %118
  %125 = load i32, ptr %5, align 4, !tbaa !3
  %126 = and i32 %125, 255
  %127 = or i32 33554432, %126
  %128 = icmp eq i32 %127, 33554450
  br i1 %128, label %129, label %130

129:                                              ; preds = %124
  br label %136

130:                                              ; preds = %124
  %131 = load i32, ptr %5, align 4, !tbaa !3
  %132 = and i32 %131, 255
  %133 = or i32 33554432, %132
  %134 = icmp eq i32 %133, 33554451
  %135 = select i1 %134, i32 64, i32 0
  br label %136

136:                                              ; preds = %130, %129
  %137 = phi i32 [ 48, %129 ], [ %135, %130 ]
  br label %138

138:                                              ; preds = %136, %123
  %139 = phi i32 [ 32, %123 ], [ %137, %136 ]
  br label %140

140:                                              ; preds = %138, %117
  %141 = phi i32 [ 28, %117 ], [ %139, %138 ]
  br label %142

142:                                              ; preds = %140, %111
  %143 = phi i32 [ 32, %111 ], [ %141, %140 ]
  br label %144

144:                                              ; preds = %142, %105
  %145 = phi i32 [ 28, %105 ], [ %143, %142 ]
  br label %146

146:                                              ; preds = %144, %99
  %147 = phi i32 [ 64, %99 ], [ %145, %144 ]
  br label %148

148:                                              ; preds = %146, %93
  %149 = phi i32 [ 48, %93 ], [ %147, %146 ]
  br label %150

150:                                              ; preds = %148, %87
  %151 = phi i32 [ 32, %87 ], [ %149, %148 ]
  br label %152

152:                                              ; preds = %150, %81
  %153 = phi i32 [ 28, %81 ], [ %151, %150 ]
  br label %154

154:                                              ; preds = %152, %75
  %155 = phi i32 [ 20, %75 ], [ %153, %152 ]
  br label %156

156:                                              ; preds = %154, %69
  %157 = phi i32 [ 20, %69 ], [ %155, %154 ]
  br label %158

158:                                              ; preds = %156, %63
  %159 = phi i32 [ 16, %63 ], [ %157, %156 ]
  %160 = zext i32 %159 to i64
  call void @mbedtls_debug_print_buf(ptr noundef %55, i32 noundef 4, ptr noundef @.str, i32 noundef 1314, ptr noundef @.str.18, ptr noundef %58, i64 noundef %160)
  store i32 0, ptr %2, align 4
  store i32 1, ptr %9, align 4
  br label %161

161:                                              ; preds = %158, %50, %35, %17
  call void @llvm.lifetime.end.p0(i64 8, ptr %8) #8
  call void @llvm.lifetime.end.p0(i64 8, ptr %7) #8
  call void @llvm.lifetime.end.p0(i64 8, ptr %6) #8
  call void @llvm.lifetime.end.p0(i64 4, ptr %5) #8
  call void @llvm.lifetime.end.p0(i64 4, ptr %4) #8
  %162 = load i32, ptr %2, align 4
  ret i32 %162
}