; Function Attrs: nounwind uwtable
define hidden i32 @mbedtls_ssl_tls13_key_schedule_stage_early(ptr noundef %0) local_unnamed_addr #0 {
  %2 = getelementptr inbounds nuw i8, ptr %0, i64 112
  %3 = load ptr, ptr %2, align 8, !tbaa !11
  %4 = getelementptr inbounds nuw i8, ptr %3, i64 16
  %5 = load ptr, ptr %4, align 8, !tbaa !21
  %6 = icmp eq ptr %5, null
  br i1 %6, label %7, label %8

7:                                                ; preds = %1
  tail call void (ptr, i32, ptr, i32, ptr, ...) @mbedtls_debug_print_msg(ptr noundef nonnull %0, i32 noundef 1, ptr noundef nonnull @.str, i32 noundef 1285, ptr noundef nonnull @.str.16) #8
  br label %33

8:                                                ; preds = %1
  %9 = getelementptr inbounds nuw i8, ptr %5, i64 17
  %10 = load i8, ptr %9, align 1, !tbaa !38
  %11 = zext i8 %10 to i32
  %12 = or disjoint i32 %11, 33554432
  %13 = getelementptr i8, ptr %3, i64 56
  %.val.val = load i8, ptr %13, align 8, !tbaa !58
  %14 = and i8 %.val.val, 5
  %.not49 = icmp eq i8 %14, 0
  br i1 %.not49, label %21, label %15

15:                                               ; preds = %8
  %16 = getelementptr inbounds nuw i8, ptr %3, i64 1680
  %17 = load ptr, ptr %16, align 8, !tbaa !59
  %18 = getelementptr inbounds nuw i8, ptr %3, i64 1688
  %19 = load i64, ptr %18, align 8, !tbaa !60
  %.not = icmp eq ptr %17, null
  br i1 %.not, label %20, label %21

20:                                               ; preds = %15
  tail call void @mbedtls_debug_print_ret(ptr noundef nonnull %0, i32 noundef 1, ptr noundef nonnull @.str, i32 noundef 1295, ptr noundef nonnull @.str.17, i32 noundef -27648) #8
  br label %33

21:                                               ; preds = %15, %8
  %.048 = phi ptr [ null, %8 ], [ %17, %15 ]
  %.047 = phi i64 [ 0, %8 ], [ %19, %15 ]
  %22 = getelementptr inbounds nuw i8, ptr %3, i64 3304
  %23 = tail call i32 @mbedtls_ssl_tls13_evolve_secret(i32 noundef %12, ptr noundef null, ptr noundef %.048, i64 noundef %.047, ptr noundef nonnull %22)
  %.not36 = icmp eq i32 %23, 0
  br i1 %.not36, label %25, label %24

24:                                               ; preds = %21
  tail call void @mbedtls_debug_print_ret(ptr noundef nonnull %0, i32 noundef 1, ptr noundef nonnull @.str, i32 noundef 1308, ptr noundef nonnull @.str.6, i32 noundef %23) #8
  br label %33

25:                                               ; preds = %21
  %switch.tableidx = add nsw i32 %11, -3
  %26 = icmp ult i32 %switch.tableidx, 16
  br i1 %26, label %switch.hole_check, label %27

27:                                               ; preds = %switch.hole_check, %25
  %28 = icmp eq i8 %10, 19
  %29 = select i1 %28, i64 64, i64 0
  br label %31

switch.hole_check:                                ; preds = %25
  %switch.maskindex = trunc nuw nsw i32 %switch.tableidx to i16
  %switch.shifted = lshr i16 -6169, %switch.maskindex
  %switch.lobit = trunc i16 %switch.shifted to i1
  br i1 %switch.lobit, label %switch.lookup, label %27

switch.lookup:                                    ; preds = %switch.hole_check
  %30 = zext nneg i32 %switch.tableidx to i64
  %switch.gep = getelementptr inbounds nuw [16 x i64], ptr @switch.table.mbedtls_ssl_tls13_compute_application_transform.13, i64 0, i64 %30
  %switch.load = load i64, ptr %switch.gep, align 8
  br label %31

31:                                               ; preds = %switch.lookup, %27
  %32 = phi i64 [ %29, %27 ], [ %switch.load, %switch.lookup ]
  tail call void @mbedtls_debug_print_buf(ptr noundef nonnull %0, i32 noundef 4, ptr noundef nonnull @.str, i32 noundef 1314, ptr noundef nonnull @.str.18, ptr noundef nonnull %22, i64 noundef %32) #8
  br label %33

33:                                               ; preds = %31, %24, %20, %7
  %.0 = phi i32 [ -27648, %7 ], [ -27648, %20 ], [ %23, %24 ], [ 0, %31 ]
  ret i32 %.0
}